target datalayout = "e-m:e-p270:32:32-p271:32:32-p272:64:64-i64:64-i128:128-f80:128-n8:16:32:64-S128"
target triple = "x86_64-pc-linux-gnu"

; Function Attrs: mustprogress uwtable
define dso_local noundef ptr @_ZN5cmsys11SystemTools15DuplicateStringEPKc(ptr noundef %0) #7 align 2 {
  %2 = alloca ptr, align 8
  %3 = alloca ptr, align 8
  %4 = alloca ptr, align 8
  store ptr %0, ptr %3, align 8, !tbaa !13
  %5 = load ptr, ptr %3, align 8, !tbaa !13
  %6 = icmp ne ptr %5, null
  br i1 %6, label %7, label %15

7:                                                ; preds = %1
  call void @llvm.lifetime.start.p0(i64 8, ptr %4) #1
  %8 = load ptr, ptr %3, align 8, !tbaa !13
  %9 = call i64 @strlen(ptr noundef %8) #24
  %10 = add i64 %9, 1
  %11 = call noalias noundef nonnull ptr @_Znam(i64 noundef %10) #25
  store ptr %11, ptr %4, align 8, !tbaa !13
  %12 = load ptr, ptr %4, align 8, !tbaa !13
  %13 = load ptr, ptr %3, align 8, !tbaa !13
  %14 = call ptr @strcpy(ptr noundef %12, ptr noundef %13) #1
  store ptr %14, ptr %2, align 8
  call void @llvm.lifetime.end.p0(i64 8, ptr %4) #1
  br label %16

15:                                               ; preds = %1
  store ptr null, ptr %2, align 8
  br label %16

16:                                               ; preds = %15, %7
  %17 = load ptr, ptr %2, align 8
  ret ptr %17
}

; Function Attrs: mustprogress uwtable
define dso_local noundef ptr @_ZN5cmsys11SystemTools13AppendStringsEPKcS2_(ptr noundef %0, ptr noundef %1) #7 align 2 {
  %3 = alloca ptr, align 8
  %4 = alloca ptr, align 8
  %5 = alloca ptr, align 8
  %6 = alloca i64, align 8
  %7 = alloca ptr, align 8
  %8 = alloca i32, align 4
  store ptr %0, ptr %4, align 8, !tbaa !13
  store ptr %1, ptr %5, align 8, !tbaa !13
  %9 = load ptr, ptr %4, align 8, !tbaa !13
  %10 = icmp ne ptr %9, null
  br i1 %10, label %14, label %11

11:                                               ; preds = %2
  %12 = load ptr, ptr %5, align 8, !tbaa !13
  %13 = call noundef ptr @_ZN5cmsys11SystemTools15DuplicateStringEPKc(ptr noundef %12)
  store ptr %13, ptr %3, align 8
  br label %43

14:                                               ; preds = %2
  %15 = load ptr, ptr %5, align 8, !tbaa !13
  %16 = icmp ne ptr %15, null
  br i1 %16, label %20, label %17

17:                                               ; preds = %14
  %18 = load ptr, ptr %4, align 8, !tbaa !13
  %19 = call noundef ptr @_ZN5cmsys11SystemTools15DuplicateStringEPKc(ptr noundef %18)
  store ptr %19, ptr %3, align 8
  br label %43

20:                                               ; preds = %14
  call void @llvm.lifetime.start.p0(i64 8, ptr %6) #1
  %21 = load ptr, ptr %4, align 8, !tbaa !13
  %22 = call i64 @strlen(ptr noundef %21) #24
  store i64 %22, ptr %6, align 8, !tbaa !15
  call void @llvm.lifetime.start.p0(i64 8, ptr %7) #1
  %23 = load i64, ptr %6, align 8, !tbaa !15
  %24 = load ptr, ptr %5, align 8, !tbaa !13
  %25 = call i64 @strlen(ptr noundef %24) #24
  %26 = add i64 %23, %25
  %27 = add i64 %26, 1
  %28 = call noalias noundef nonnull ptr @_Znam(i64 noundef %27) #25
  store ptr %28, ptr %7, align 8, !tbaa !13
  %29 = load ptr, ptr %7, align 8, !tbaa !13
  %30 = icmp ne ptr %29, null
  br i1 %30, label %32, label %31

31:                                               ; preds = %20
  store ptr null, ptr %3, align 8
  store i32 1, ptr %8, align 4
  br label %42

32:                                               ; preds = %20
  %33 = load ptr, ptr %7, align 8, !tbaa !13
  %34 = load ptr, ptr %4, align 8, !tbaa !13
  %35 = call ptr @strcpy(ptr noundef %33, ptr noundef %34) #1
  %36 = load ptr, ptr %7, align 8, !tbaa !13
  %37 = load i64, ptr %6, align 8, !tbaa !15
  %38 = getelementptr inbounds nuw i8, ptr %36, i64 %37
  %39 = load ptr, ptr %5, align 8, !tbaa !13
  %40 = call ptr @strcat(ptr noundef %38, ptr noundef %39) #1
  %41 = load ptr, ptr %7, align 8, !tbaa !13
  store ptr %41, ptr %3, align 8
  store i32 1, ptr %8, align 4
  br label %42

42:                                               ; preds = %32, %31
  call void @llvm.lifetime.end.p0(i64 8, ptr %7) #1
  call void @llvm.lifetime.end.p0(i64 8, ptr %6) #1
  br label %43

43:                                               ; preds = %42, %17, %11
  %44 = load ptr, ptr %3, align 8
  ret ptr %44
}