; Function Attrs: mustprogress uwtable
define dso_local noundef ptr @_ZN5cmsys11SystemTools13AppendStringsEPKcS2_(ptr noundef readonly %0, ptr noundef readonly %1) local_unnamed_addr #6 align 2 {
  %.not = icmp eq ptr %0, null
  %.not.i = icmp eq ptr %1, null
  br i1 %.not, label %3, label %9

3:                                                ; preds = %2
  br i1 %.not.i, label %_ZN5cmsys11SystemTools15DuplicateStringEPKc.exit, label %4

4:                                                ; preds = %3
  %5 = tail call i64 @strlen(ptr noundef nonnull readonly dereferenceable(1) %1) #43
  %6 = add i64 %5, 1
  %7 = tail call noalias noundef nonnull ptr @_Znam(i64 noundef %6) #44
  %8 = tail call ptr @strcpy(ptr noundef nonnull dereferenceable(1) %7, ptr noundef nonnull readonly dereferenceable(1) %1) #39
  br label %_ZN5cmsys11SystemTools15DuplicateStringEPKc.exit

9:                                                ; preds = %2
  %10 = tail call i64 @strlen(ptr noundef nonnull dereferenceable(1) %0) #43
  br i1 %.not.i, label %_ZN5cmsys11SystemTools15DuplicateStringEPKc.exit19, label %14

_ZN5cmsys11SystemTools15DuplicateStringEPKc.exit19: ; preds = %9
  %11 = add i64 %10, 1
  %12 = tail call noalias noundef nonnull ptr @_Znam(i64 noundef %11) #44
  %13 = tail call ptr @strcpy(ptr noundef nonnull dereferenceable(1) %12, ptr noundef nonnull readonly dereferenceable(1) %0) #39
  br label %_ZN5cmsys11SystemTools15DuplicateStringEPKc.exit

14:                                               ; preds = %9
  %15 = tail call i64 @strlen(ptr noundef nonnull dereferenceable(1) %1) #43
  %16 = add i64 %10, 1
  %17 = add i64 %16, %15
  %18 = tail call noalias noundef nonnull ptr @_Znam(i64 noundef %17) #44
  %19 = tail call ptr @strcpy(ptr noundef nonnull dereferenceable(1) %18, ptr noundef nonnull dereferenceable(1) %0) #39
  %20 = getelementptr inbounds nuw i8, ptr %18, i64 %10
  %21 = tail call ptr @strcat(ptr noundef nonnull dereferenceable(1) %20, ptr noundef nonnull dereferenceable(1) %1) #39
  br label %_ZN5cmsys11SystemTools15DuplicateStringEPKc.exit

_ZN5cmsys11SystemTools15DuplicateStringEPKc.exit: ; preds = %4, %3, %14, %_ZN5cmsys11SystemTools15DuplicateStringEPKc.exit19
  %.0 = phi ptr [ %18, %14 ], [ %12, %_ZN5cmsys11SystemTools15DuplicateStringEPKc.exit19 ], [ %7, %4 ], [ null, %3 ]
  ret ptr %.0
}